; ModuleID = '20/930.c'
source_filename = "20/930.c"
target datalayout = "e-m:e-p270:32:32-p271:32:32-p272:64:64-i64:64-f80:128-n8:16:32:64-S128"
target triple = "x86_64-pc-linux-gnu"

@.str = private unnamed_addr constant [6 x i8] c"%s %s\00", align 1
@.str.1 = private unnamed_addr constant [4 x i8] c"%s\0A\00", align 1

; Function Attrs: noinline nounwind uwtable
define dso_local i32 @main() #0 {
  %1 = alloca i32, align 4
  %2 = alloca [100 x i8], align 16
  %3 = alloca [100 x i8], align 16
  %4 = alloca [100 x i8], align 16
  %5 = alloca [100 x i8], align 16
  %6 = alloca [1 x i8], align 1
  %7 = alloca i32, align 4
  %8 = alloca i32, align 4
  %9 = alloca i32, align 4
  store i32 0, i32* %1, align 4
  br label %10

10:                                               ; preds = %90, %0
  %11 = getelementptr inbounds [100 x i8], [100 x i8]* %2, i64 0, i64 0
  %12 = getelementptr inbounds [100 x i8], [100 x i8]* %3, i64 0, i64 0
  %13 = call i32 (i8*, ...) @__isoc99_scanf(i8* getelementptr inbounds ([6 x i8], [6 x i8]* @.str, i64 0, i64 0), i8* %11, i8* %12)
  %14 = icmp ne i32 %13, -1
  br i1 %14, label %15, label %105

15:                                               ; preds = %10
  %16 = getelementptr inbounds [100 x i8], [100 x i8]* %2, i64 0, i64 0
  %17 = load i8, i8* %16, align 16
  %18 = getelementptr inbounds [1 x i8], [1 x i8]* %6, i64 0, i64 0
  store i8 %17, i8* %18, align 1
  store i32 0, i32* %9, align 4
  store i32 0, i32* %7, align 4
  br label %19

19:                                               ; preds = %44, %15
  %20 = load i32, i32* %7, align 4
  %21 = sext i32 %20 to i64
  %22 = getelementptr inbounds [100 x i8], [100 x i8]* %2, i64 0, i64 %21
  %23 = load i8, i8* %22, align 1
  %24 = sext i8 %23 to i32
  %25 = icmp ne i32 %24, 0
  br i1 %25, label %26, label %47

26:                                               ; preds = %19
  %27 = load i32, i32* %7, align 4
  %28 = sext i32 %27 to i64
  %29 = getelementptr inbounds [100 x i8], [100 x i8]* %2, i64 0, i64 %28
  %30 = load i8, i8* %29, align 1
  %31 = sext i8 %30 to i32
  %32 = getelementptr inbounds [1 x i8], [1 x i8]* %6, i64 0, i64 0
  %33 = load i8, i8* %32, align 1
  %34 = sext i8 %33 to i32
  %35 = icmp sgt i32 %31, %34
  br i1 %35, label %36, label %43

36:                                               ; preds = %26
  %37 = load i32, i32* %7, align 4
  %38 = sext i32 %37 to i64
  %39 = getelementptr inbounds [100 x i8], [100 x i8]* %2, i64 0, i64 %38
  %40 = load i8, i8* %39, align 1
  %41 = getelementptr inbounds [1 x i8], [1 x i8]* %6, i64 0, i64 0
  store i8 %40, i8* %41, align 1
  %42 = load i32, i32* %7, align 4
  store i32 %42, i32* %9, align 4
  br label %43

43:                                               ; preds = %36, %26
  br label %44

44:                                               ; preds = %43
  %45 = load i32, i32* %7, align 4
  %46 = add nsw i32 %45, 1
  store i32 %46, i32* %7, align 4
  br label %19

47:                                               ; preds = %19
  store i32 0, i32* %7, align 4
  br label %48

48:                                               ; preds = %60, %47
  %49 = load i32, i32* %7, align 4
  %50 = load i32, i32* %9, align 4
  %51 = icmp sle i32 %49, %50
  br i1 %51, label %52, label %63

52:                                               ; preds = %48
  %53 = load i32, i32* %7, align 4
  %54 = sext i32 %53 to i64
  %55 = getelementptr inbounds [100 x i8], [100 x i8]* %2, i64 0, i64 %54
  %56 = load i8, i8* %55, align 1
  %57 = load i32, i32* %7, align 4
  %58 = sext i32 %57 to i64
  %59 = getelementptr inbounds [100 x i8], [100 x i8]* %4, i64 0, i64 %58
  store i8 %56, i8* %59, align 1
  br label %60

60:                                               ; preds = %52
  %61 = load i32, i32* %7, align 4
  %62 = add nsw i32 %61, 1
  store i32 %62, i32* %7, align 4
  br label %48

63:                                               ; preds = %48
  %64 = load i32, i32* %7, align 4
  %65 = sext i32 %64 to i64
  %66 = getelementptr inbounds [100 x i8], [100 x i8]* %4, i64 0, i64 %65
  store i8 0, i8* %66, align 1
  %67 = load i32, i32* %9, align 4
  %68 = add nsw i32 %67, 1
  store i32 %68, i32* %8, align 4
  br label %69

69:                                               ; preds = %87, %63
  %70 = load i32, i32* %8, align 4
  %71 = sext i32 %70 to i64
  %72 = getelementptr inbounds [100 x i8], [100 x i8]* %2, i64 0, i64 %71
  %73 = load i8, i8* %72, align 1
  %74 = sext i8 %73 to i32
  %75 = icmp ne i32 %74, 0
  br i1 %75, label %76, label %90

76:                                               ; preds = %69
  %77 = load i32, i32* %8, align 4
  %78 = sext i32 %77 to i64
  %79 = getelementptr inbounds [100 x i8], [100 x i8]* %2, i64 0, i64 %78
  %80 = load i8, i8* %79, align 1
  %81 = load i32, i32* %8, align 4
  %82 = load i32, i32* %9, align 4
  %83 = sub nsw i32 %81, %82
  %84 = sub nsw i32 %83, 1
  %85 = sext i32 %84 to i64
  %86 = getelementptr inbounds [100 x i8], [100 x i8]* %5, i64 0, i64 %85
  store i8 %80, i8* %86, align 1
  br label %87

87:                                               ; preds = %76
  %88 = load i32, i32* %8, align 4
  %89 = add nsw i32 %88, 1
  store i32 %89, i32* %8, align 4
  br label %69

90:                                               ; preds = %69
  %91 = load i32, i32* %8, align 4
  %92 = load i32, i32* %9, align 4
  %93 = sub nsw i32 %91, %92
  %94 = sub nsw i32 %93, 1
  %95 = sext i32 %94 to i64
  %96 = getelementptr inbounds [100 x i8], [100 x i8]* %5, i64 0, i64 %95
  store i8 0, i8* %96, align 1
  %97 = getelementptr inbounds [100 x i8], [100 x i8]* %4, i64 0, i64 0
  %98 = getelementptr inbounds [100 x i8], [100 x i8]* %3, i64 0, i64 0
  %99 = call i8* @strcat(i8* %97, i8* %98) #3
  %100 = getelementptr inbounds [100 x i8], [100 x i8]* %4, i64 0, i64 0
  %101 = getelementptr inbounds [100 x i8], [100 x i8]* %5, i64 0, i64 0
  %102 = call i8* @strcat(i8* %100, i8* %101) #3
  %103 = getelementptr inbounds [100 x i8], [100 x i8]* %4, i64 0, i64 0
  %104 = call i32 (i8*, ...) @printf(i8* getelementptr inbounds ([4 x i8], [4 x i8]* @.str.1, i64 0, i64 0), i8* %103)
  br label %10

105:                                              ; preds = %10
  ret i32 0
}

declare dso_local i32 @__isoc99_scanf(i8*, ...) #1

; Function Attrs: nounwind
declare dso_local i8* @strcat(i8*, i8*) #2

declare dso_local i32 @printf(i8*, ...) #1


!llvm.module.flags = !{!0}
!llvm.ident = !{!1}

!0 = !{i32 1, !"wchar_size", i32 4}
!1 = !{!"clang version 10.0.0-4ubuntu1 "}
